; Function Attrs: nounwind uwtable
define internal noundef i32 @H5P__free_del_name_cb(ptr noundef %0, ptr readnone captures(none) %1, ptr readnone captures(none) %2) #0 {
  %4 = load i8, ptr @H5P_init_g, align 1, !tbaa !3, !range !7, !noundef !8
  %5 = trunc nuw i8 %4 to i1
  %6 = load i8, ptr @H5_libterm_g, align 1, !range !7
  %7 = trunc nuw i8 %6 to i1
  %8 = xor i1 %7, true
  %9 = select i1 %5, i1 true, i1 %8
  br i1 %9, label %10, label %12, !prof !9

10:                                               ; preds = %3
  %11 = tail call ptr @H5MM_xfree(ptr noundef %0) #14
  br label %12

12:                                               ; preds = %10, %3
  ret i32 0
}